target datalayout = "e-m:e-p270:32:32-p271:32:32-p272:64:64-i64:64-i128:128-f80:128-n8:16:32:64-S128"
target triple = "x86_64-pc-linux-gnu"

; Function Attrs: nounwind uwtable
define dso_local void @makeTriMesh(i32 noundef %0, ptr noundef %1) #0 {
  %3 = alloca i32, align 4
  %4 = alloca ptr, align 8
  %5 = alloca i32, align 4
  %6 = alloca i32, align 4
  %7 = alloca i32, align 4
  %8 = alloca i32, align 4
  %9 = alloca i32, align 4
  store i32 %0, ptr %3, align 4, !tbaa !4
  store ptr %1, ptr %4, align 8, !tbaa !8
  %10 = load i32, ptr %3, align 4, !tbaa !4
  %11 = icmp eq i32 %10, 1
  br i1 %11, label %12, label %14

12:                                               ; preds = %2
  %13 = load ptr, ptr %4, align 8, !tbaa !8
  call void %13(i32 noundef 1, i32 noundef 0)
  br label %75

14:                                               ; preds = %2
  %15 = load ptr, ptr %4, align 8, !tbaa !8
  call void %15(i32 noundef 1, i32 noundef 2)
  %16 = load ptr, ptr %4, align 8, !tbaa !8
  call void %16(i32 noundef 1, i32 noundef 3)
  call void @llvm.lifetime.start.p0(i64 4, ptr %5) #11
  store i32 2, ptr %5, align 4, !tbaa !4
  call void @llvm.lifetime.start.p0(i64 4, ptr %6) #11
  store i32 2, ptr %6, align 4, !tbaa !4
  br label %17

17:                                               ; preds = %55, %14
  %18 = load i32, ptr %6, align 4, !tbaa !4
  %19 = load i32, ptr %3, align 4, !tbaa !4
  %20 = icmp ult i32 %18, %19
  br i1 %20, label %22, label %21

21:                                               ; preds = %17
  store i32 2, ptr %7, align 4
  call void @llvm.lifetime.end.p0(i64 4, ptr %6) #11
  br label %58

22:                                               ; preds = %17
  call void @llvm.lifetime.start.p0(i64 4, ptr %8) #11
  store i32 1, ptr %8, align 4, !tbaa !4
  br label %23

23:                                               ; preds = %51, %22
  %24 = load i32, ptr %8, align 4, !tbaa !4
  %25 = load i32, ptr %6, align 4, !tbaa !4
  %26 = icmp ule i32 %24, %25
  br i1 %26, label %28, label %27

27:                                               ; preds = %23
  store i32 5, ptr %7, align 4
  call void @llvm.lifetime.end.p0(i64 4, ptr %8) #11
  br label %54

28:                                               ; preds = %23
  %29 = load ptr, ptr %4, align 8, !tbaa !8
  %30 = load i32, ptr %5, align 4, !tbaa !4
  %31 = load i32, ptr %5, align 4, !tbaa !4
  %32 = load i32, ptr %6, align 4, !tbaa !4
  %33 = add i32 %31, %32
  call void %29(i32 noundef %30, i32 noundef %33)
  %34 = load ptr, ptr %4, align 8, !tbaa !8
  %35 = load i32, ptr %5, align 4, !tbaa !4
  %36 = load i32, ptr %5, align 4, !tbaa !4
  %37 = load i32, ptr %6, align 4, !tbaa !4
  %38 = add i32 %36, %37
  %39 = add i32 %38, 1
  call void %34(i32 noundef %35, i32 noundef %39)
  %40 = load i32, ptr %8, align 4, !tbaa !4
  %41 = load i32, ptr %6, align 4, !tbaa !4
  %42 = icmp ult i32 %40, %41
  br i1 %42, label %43, label %48

43:                                               ; preds = %28
  %44 = load ptr, ptr %4, align 8, !tbaa !8
  %45 = load i32, ptr %5, align 4, !tbaa !4
  %46 = load i32, ptr %5, align 4, !tbaa !4
  %47 = add i32 %46, 1
  call void %44(i32 noundef %45, i32 noundef %47)
  br label %48

48:                                               ; preds = %43, %28
  %49 = load i32, ptr %5, align 4, !tbaa !4
  %50 = add i32 %49, 1
  store i32 %50, ptr %5, align 4, !tbaa !4
  br label %51

51:                                               ; preds = %48
  %52 = load i32, ptr %8, align 4, !tbaa !4
  %53 = add i32 %52, 1
  store i32 %53, ptr %8, align 4, !tbaa !4
  br label %23, !llvm.loop !53

54:                                               ; preds = %27
  br label %55

55:                                               ; preds = %54
  %56 = load i32, ptr %6, align 4, !tbaa !4
  %57 = add i32 %56, 1
  store i32 %57, ptr %6, align 4, !tbaa !4
  br label %17, !llvm.loop !54

58:                                               ; preds = %21
  call void @llvm.lifetime.start.p0(i64 4, ptr %9) #11
  store i32 1, ptr %9, align 4, !tbaa !4
  br label %59

59:                                               ; preds = %71, %58
  %60 = load i32, ptr %9, align 4, !tbaa !4
  %61 = load i32, ptr %3, align 4, !tbaa !4
  %62 = icmp ult i32 %60, %61
  br i1 %62, label %64, label %63

63:                                               ; preds = %59
  store i32 8, ptr %7, align 4
  call void @llvm.lifetime.end.p0(i64 4, ptr %9) #11
  br label %74

64:                                               ; preds = %59
  %65 = load ptr, ptr %4, align 8, !tbaa !8
  %66 = load i32, ptr %5, align 4, !tbaa !4
  %67 = load i32, ptr %5, align 4, !tbaa !4
  %68 = add i32 %67, 1
  call void %65(i32 noundef %66, i32 noundef %68)
  %69 = load i32, ptr %5, align 4, !tbaa !4
  %70 = add i32 %69, 1
  store i32 %70, ptr %5, align 4, !tbaa !4
  br label %71

71:                                               ; preds = %64
  %72 = load i32, ptr %9, align 4, !tbaa !4
  %73 = add i32 %72, 1
  store i32 %73, ptr %9, align 4, !tbaa !4
  br label %59, !llvm.loop !55

74:                                               ; preds = %63
  call void @llvm.lifetime.end.p0(i64 4, ptr %5) #11
  br label %75

75:                                               ; preds = %74, %12
  ret void
}