; Function Attrs: nounwind uwtable
define dso_local void @makeTriMesh(i32 noundef %0, ptr noundef readonly captures(none) %1) local_unnamed_addr #0 {
  %3 = icmp eq i32 %0, 1
  br i1 %3, label %4, label %5

4:                                                ; preds = %2
  tail call void %1(i32 noundef 1, i32 noundef 0) #15
  br label %.loopexit

5:                                                ; preds = %2
  tail call void %1(i32 noundef 1, i32 noundef 2) #15
  tail call void %1(i32 noundef 1, i32 noundef 3) #15
  %6 = icmp ugt i32 %0, 2
  br i1 %6, label %.preheader34, label %.preheader

.preheader34:                                     ; preds = %5, %7
  %indvars.iv = phi i32 [ %indvars.iv.next, %7 ], [ 3, %5 ]
  %.03138 = phi i32 [ %invariant.op, %7 ], [ 2, %5 ]
  %.03237 = phi i32 [ %11, %7 ], [ 2, %5 ]
  %invariant.op = add nuw i32 %.03138, 1
  br label %8

.preheader:                                       ; preds = %5
  %.not = icmp eq i32 %0, 0
  br i1 %.not, label %.loopexit, label %.lr.ph.preheader

.lr.ph.preheader:                                 ; preds = %7, %.preheader
  %.032.lcssa45 = phi i32 [ 2, %.preheader ], [ %11, %7 ]
  %umax = tail call i32 @llvm.umax.i32(i32 %0, i32 2)
  br label %.lr.ph

7:                                                ; preds = %._crit_edge
  %indvars.iv.next = add i32 %indvars.iv, 1
  %exitcond41.not = icmp eq i32 %indvars.iv, %0
  br i1 %exitcond41.not, label %.lr.ph.preheader, label %.preheader34, !llvm.loop !47

8:                                                ; preds = %.preheader34, %._crit_edge
  %.03036 = phi i32 [ 1, %.preheader34 ], [ %13, %._crit_edge ]
  %.135 = phi i32 [ %.03237, %.preheader34 ], [ %11, %._crit_edge ]
  %9 = add i32 %.135, %.03138
  tail call void %1(i32 noundef %.135, i32 noundef %9) #15
  %.reass = add i32 %.135, %invariant.op
  tail call void %1(i32 noundef %.135, i32 noundef %.reass) #15
  %10 = icmp ult i32 %.03036, %.03138
  %11 = add i32 %.135, 1
  br i1 %10, label %12, label %._crit_edge

12:                                               ; preds = %8
  tail call void %1(i32 noundef %.135, i32 noundef %11) #15
  br label %._crit_edge

._crit_edge:                                      ; preds = %8, %12
  %13 = add nuw i32 %.03036, 1
  %exitcond.not = icmp eq i32 %13, %indvars.iv
  br i1 %exitcond.not, label %7, label %8, !llvm.loop !48

.lr.ph:                                           ; preds = %.lr.ph.preheader, %.lr.ph
  %.040 = phi i32 [ %15, %.lr.ph ], [ 1, %.lr.ph.preheader ]
  %.239 = phi i32 [ %14, %.lr.ph ], [ %.032.lcssa45, %.lr.ph.preheader ]
  %14 = add i32 %.239, 1
  tail call void %1(i32 noundef %.239, i32 noundef %14) #15
  %15 = add nuw i32 %.040, 1
  %exitcond42.not = icmp eq i32 %15, %umax
  br i1 %exitcond42.not, label %.loopexit, label %.lr.ph, !llvm.loop !49

.loopexit:                                        ; preds = %.lr.ph, %.preheader, %4
  ret void
}